; Function Attrs: mustprogress uwtable
define void @_ZN7testing8internal12UnitTestImpl12ShuffleTestsEv(ptr noundef nonnull align 8 dereferenceable(497) %this) local_unnamed_addr #3 align 2 {
entry:
  %random_.i = getelementptr inbounds i8, ptr %this, i64 440
  %last_death_test_case_ = getelementptr inbounds i8, ptr %this, i64 260
  %0 = load i32, ptr %last_death_test_case_, align 4
  %add = add nsw i32 %0, 1
  %test_case_indices_ = getelementptr inbounds i8, ptr %this, i64 208
  tail call void @_ZN7testing8internal12ShuffleRangeIiEEvPNS0_6RandomEiiPSt6vectorIT_SaIS5_EE(ptr noundef nonnull %random_.i, i32 noundef 0, i32 noundef %add, ptr noundef nonnull %test_case_indices_)
  %1 = load i32, ptr %last_death_test_case_, align 4
  %add4 = add nsw i32 %1, 1
  %test_cases_ = getelementptr inbounds i8, ptr %this, i64 184
  %_M_finish.i = getelementptr inbounds i8, ptr %this, i64 192
  %2 = load ptr, ptr %_M_finish.i, align 8
  %3 = load ptr, ptr %test_cases_, align 8
  %sub.ptr.lhs.cast.i = ptrtoint ptr %2 to i64
  %sub.ptr.rhs.cast.i = ptrtoint ptr %3 to i64
  %sub.ptr.sub.i = sub i64 %sub.ptr.lhs.cast.i, %sub.ptr.rhs.cast.i
  %sub.ptr.div.i = lshr exact i64 %sub.ptr.sub.i, 3
  %conv = trunc i64 %sub.ptr.div.i to i32
  tail call void @_ZN7testing8internal12ShuffleRangeIiEEvPNS0_6RandomEiiPSt6vectorIT_SaIS5_EE(ptr noundef nonnull %random_.i, i32 noundef %add4, i32 noundef %conv, ptr noundef nonnull %test_case_indices_)
  %4 = load ptr, ptr %_M_finish.i, align 8
  %5 = load ptr, ptr %test_cases_, align 8
  %cmp14.not = icmp eq ptr %4, %5
  br i1 %cmp14.not, label %for.end, label %for.body

for.body:                                         ; preds = %entry, %for.body
  %6 = phi ptr [ %11, %for.body ], [ %5, %entry ]
  %i.015 = phi i64 [ %inc, %for.body ], [ 0, %entry ]
  %add.ptr.i = getelementptr inbounds ptr, ptr %6, i64 %i.015
  %7 = load ptr, ptr %add.ptr.i, align 8
  %test_indices_.i = getelementptr inbounds i8, ptr %7, i64 72
  %_M_finish.i.i.i = getelementptr inbounds i8, ptr %7, i64 80
  %8 = load ptr, ptr %_M_finish.i.i.i, align 8
  %9 = load ptr, ptr %test_indices_.i, align 8
  %sub.ptr.lhs.cast.i.i.i = ptrtoint ptr %8 to i64
  %sub.ptr.rhs.cast.i.i.i = ptrtoint ptr %9 to i64
  %sub.ptr.sub.i.i.i = sub i64 %sub.ptr.lhs.cast.i.i.i, %sub.ptr.rhs.cast.i.i.i
  %sub.ptr.div.i.i.i = lshr exact i64 %sub.ptr.sub.i.i.i, 2
  %conv.i.i = trunc i64 %sub.ptr.div.i.i.i to i32
  tail call void @_ZN7testing8internal12ShuffleRangeIiEEvPNS0_6RandomEiiPSt6vectorIT_SaIS5_EE(ptr noundef nonnull %random_.i, i32 noundef 0, i32 noundef %conv.i.i, ptr noundef nonnull %test_indices_.i)
  %inc = add nuw i64 %i.015, 1
  %10 = load ptr, ptr %_M_finish.i, align 8
  %11 = load ptr, ptr %test_cases_, align 8
  %sub.ptr.lhs.cast.i5 = ptrtoint ptr %10 to i64
  %sub.ptr.rhs.cast.i6 = ptrtoint ptr %11 to i64
  %sub.ptr.sub.i7 = sub i64 %sub.ptr.lhs.cast.i5, %sub.ptr.rhs.cast.i6
  %sub.ptr.div.i8 = ashr exact i64 %sub.ptr.sub.i7, 3
  %cmp = icmp ult i64 %inc, %sub.ptr.div.i8
  br i1 %cmp, label %for.body, label %for.end, !llvm.loop !425

for.end:                                          ; preds = %for.body, %entry
  ret void
}